; Function Attrs: mustprogress nounwind uwtable
define dso_local void @_ZNK4llvm19ReachingDefAnalysis11getLiveOutsEPNS_17MachineBasicBlockENS_10MCRegisterERNS_15SmallPtrSetImplIPNS_12MachineInstrEEE(ptr nocapture noundef nonnull readonly align 8 dereferenceable(444) %0, ptr noundef %1, i32 %2, ptr noundef nonnull align 8 dereferenceable(28) %3) local_unnamed_addr #0 align 2 {
  %5 = alloca %"class.llvm::SmallPtrSet.188", align 8
  %6 = getelementptr inbounds nuw i8, ptr %5, i64 32
  store ptr %6, ptr %5, align 8
  %7 = getelementptr inbounds nuw i8, ptr %5, i64 8
  store ptr %6, ptr %7, align 8
  %8 = getelementptr inbounds nuw i8, ptr %5, i64 16
  store i32 2, ptr %8, align 8
  %9 = getelementptr inbounds nuw i8, ptr %5, i64 20
  store i32 0, ptr %9, align 4
  %10 = getelementptr inbounds nuw i8, ptr %5, i64 24
  store i32 0, ptr %10, align 8
  call void @_ZNK4llvm19ReachingDefAnalysis11getLiveOutsEPNS_17MachineBasicBlockENS_10MCRegisterERNS_15SmallPtrSetImplIPNS_12MachineInstrEEERNS4_IS2_EE(ptr noundef nonnull align 8 dereferenceable(444) %0, ptr noundef %1, i32 %2, ptr noundef nonnull align 8 dereferenceable(28) %3, ptr noundef nonnull align 8 dereferenceable(28) %5)
  %11 = load ptr, ptr %7, align 8
  %12 = load ptr, ptr %5, align 8
  %13 = icmp eq ptr %11, %12
  br i1 %13, label %_ZN4llvm11SmallPtrSetIPNS_17MachineBasicBlockELj2EED2Ev.exit, label %14

14:                                               ; preds = %4
  call void @free(ptr noundef %11) #15
  br label %_ZN4llvm11SmallPtrSetIPNS_17MachineBasicBlockELj2EED2Ev.exit

_ZN4llvm11SmallPtrSetIPNS_17MachineBasicBlockELj2EED2Ev.exit: ; preds = %4, %14
  ret void
}